Certificate:
    Data:
        Version: 1 (0x0)
        Serial Number: 12 (0xc)
    Signature Algorithm: sha1WithRSAEncryption
        Issuer: O=Protocolo de Comando Seguro Movido a JSON, OU=PCSMJ/emailAddress=glaucomunsberg@gmail.com, L=Pelotas, ST=Rio Grande do Sul, C=BR
        Validity
            Not Before: Feb 10 22:39:24 2014 GMT
            Not After : Feb 10 22:39:24 2015 GMT
        Subject: C=BR, ST=Rio Grande do Sul, O=Protocolo de Comando Seguro Movido a JSON, OU=PCSMJ, CN=rodrigodroliveira
        Subject Public Key Info:
            Public Key Algorithm: rsaEncryption
                Public-Key: (1024 bit)
                Modulus:
                    00:c7:8b:7a:2f:94:39:c6:7e:ac:93:ed:80:c1:76:
                    a2:12:b1:d4:af:20:6f:63:da:b7:0b:0d:2c:ff:45:
                    de:dd:dc:a5:05:6d:6e:a1:72:ca:7d:e3:23:3b:88:
                    31:b4:4d:b6:f2:dd:06:0b:72:c2:92:c9:01:21:ff:
                    62:29:bc:a5:d0:a6:3a:f1:48:30:74:42:c4:7f:07:
                    fb:a3:72:5a:c8:09:ce:f1:cd:39:f9:ce:4c:c1:01:
                    53:d2:7a:7d:48:6b:78:bd:ee:89:e7:5a:26:10:16:
                    1f:cf:62:bf:2f:7c:53:fd:6b:6d:d2:ea:b4:93:d5:
                    4b:68:72:19:e7:f0:89:6f:91
                Exponent: 65537 (0x10001)
    Signature Algorithm: sha1WithRSAEncryption
         98:46:0a:98:37:a5:04:7f:52:b0:04:ca:c5:b0:bd:ca:35:45:
         9c:83:26:37:b1:7d:06:c3:21:69:64:f6:fc:3d:47:85:13:b7:
         47:23:d2:a2:e1:6d:86:19:38:81:a9:d5:9c:10:d9:2d:86:ae:
         57:0e:cf:a1:bf:09:fe:c7:76:4d:ef:88:88:8e:56:0f:17:53:
         c9:1a:b1:d3:df:1f:5b:f0:6c:ea:bb:36:ee:50:49:78:0b:f1:
         2e:37:d4:40:97:c1:10:53:22:df:34:7d:bb:ae:2c:e8:e2:2a:
         40:32:c3:ef:d0:13:1f:58:d6:5c:15:b2:7d:5f:40:30:31:f8:
         4a:2e
-----BEGIN CERTIFICATE-----
MIICojCCAgsCAQwwDQYJKoZIhvcNAQEFBQAwgagxMjAwBgNVBAoTKVByb3RvY29s
byBkZSBDb21hbmRvIFNlZ3VybyBNb3ZpZG8gYSBKU09OMQ4wDAYDVQQLEwVQQ1NN
SjEnMCUGCSqGSIb3DQEJARYYZ2xhdWNvbXVuc2JlcmdAZ21haWwuY29tMRAwDgYD
VQQHEwdQZWxvdGFzMRowGAYDVQQIExFSaW8gR3JhbmRlIGRvIFN1bDELMAkGA1UE
BhMCQlIwHhcNMTQwMjEwMjIzOTI0WhcNMTUwMjEwMjIzOTI0WjCBiTELMAkGA1UE
BhMCQlIxGjAYBgNVBAgTEVJpbyBHcmFuZGUgZG8gU3VsMTIwMAYDVQQKEylQcm90
b2NvbG8gZGUgQ29tYW5kbyBTZWd1cm8gTW92aWRvIGEgSlNPTjEOMAwGA1UECxMF
UENTTUoxGjAYBgNVBAMTEXJvZHJpZ29kcm9saXZlaXJhMIGfMA0GCSqGSIb3DQEB
AQUAA4GNADCBiQKBgQDHi3ovlDnGfqyT7YDBdqISsdSvIG9j2rcLDSz/Rd7d3KUF
bW6hcsp94yM7iDG0Tbby3QYLcsKSyQEh/2IpvKXQpjrxSDB0QsR/B/ujclrICc7x
zTn5zkzBAVPSen1Ia3i97onnWiYQFh/PYr8vfFP9a23S6rST1Utochnn8IlvkQID
AQABMA0GCSqGSIb3DQEBBQUAA4GBAJhGCpg3pQR/UrAEysWwvco1RZyDJjexfQbD
IWlk9vw9R4UTt0cj0qLhbYYZOIGp1ZwQ2S2GrlcOz6G/Cf7Hdk3viIiOVg8XU8ka
sdPfH1vwbOq7Nu5QSXgL8S431ECXwRBTIt80fbuuLOjiKkAyw+/QEx9Y1lwVsn1f
QDAx+Eou
-----END CERTIFICATE-----
