Certificate:
    Data:
        Version: 1 (0x0)
        Serial Number: 6 (0x6)
    Signature Algorithm: sha1WithRSAEncryption
        Issuer: O=Protocolo de Comando Seguro Movido a JSON, OU=PCSMJ/emailAddress=glaucomunsberg@gmail.com, L=Pelotas, ST=Rio Grande do Sul, C=BR
        Validity
            Not Before: Feb  8 16:30:31 2014 GMT
            Not After : Feb  8 16:30:31 2015 GMT
        Subject: C=BR, ST=Rio Grande do Sul, O=Protocolo de Comando Seguro Movido a JSON, OU=PCSMJ, CN=servidor_intermediario
        Subject Public Key Info:
            Public Key Algorithm: rsaEncryption
                Public-Key: (1024 bit)
                Modulus:
                    00:b2:aa:32:ba:d9:fa:68:63:9d:e2:e2:de:40:07:
                    16:40:6d:dd:42:01:37:22:f5:81:9a:7b:39:74:91:
                    8d:bd:14:74:8f:31:ad:d4:ca:3f:cf:12:f8:fe:4d:
                    7b:80:2c:ae:f1:75:7a:45:32:22:e4:47:ed:50:85:
                    9e:0e:ff:d3:a8:cc:5e:01:3f:0d:a5:ee:b5:3d:be:
                    56:e0:5c:1c:db:9b:06:2d:76:82:59:52:4c:1b:10:
                    a3:c9:76:0f:38:2f:2f:0c:6e:ae:e2:2e:bd:76:3c:
                    18:f8:f6:f9:b3:d8:5d:4e:f0:b9:f1:31:e0:cd:55:
                    6e:9c:75:8c:d5:6c:af:2e:fd
                Exponent: 65537 (0x10001)
    Signature Algorithm: sha1WithRSAEncryption
         9e:f3:d1:33:87:de:c0:45:f0:92:a9:da:04:33:4b:62:90:b4:
         05:97:ae:08:8b:c8:41:a0:c2:ab:af:dc:48:cd:59:0c:24:9c:
         4e:29:4d:11:33:d8:51:20:a9:bc:9f:44:0d:44:73:f9:09:7e:
         1f:b9:01:50:3f:00:71:c5:67:13:51:ae:35:cf:35:45:2f:a8:
         af:13:eb:7f:8e:00:15:33:51:23:1c:2d:c9:59:55:a6:12:2e:
         14:c0:01:0c:e0:d4:85:aa:47:a1:6c:f4:dc:7f:cc:04:d5:1d:
         e6:05:5d:0c:c8:ed:7d:82:7d:07:86:f9:69:14:a1:b7:f8:6e:
         7b:dd
-----BEGIN CERTIFICATE-----
MIICpzCCAhACAQYwDQYJKoZIhvcNAQEFBQAwgagxMjAwBgNVBAoTKVByb3RvY29s
byBkZSBDb21hbmRvIFNlZ3VybyBNb3ZpZG8gYSBKU09OMQ4wDAYDVQQLEwVQQ1NN
SjEnMCUGCSqGSIb3DQEJARYYZ2xhdWNvbXVuc2JlcmdAZ21haWwuY29tMRAwDgYD
VQQHEwdQZWxvdGFzMRowGAYDVQQIExFSaW8gR3JhbmRlIGRvIFN1bDELMAkGA1UE
BhMCQlIwHhcNMTQwMjA4MTYzMDMxWhcNMTUwMjA4MTYzMDMxWjCBjjELMAkGA1UE
BhMCQlIxGjAYBgNVBAgTEVJpbyBHcmFuZGUgZG8gU3VsMTIwMAYDVQQKEylQcm90
b2NvbG8gZGUgQ29tYW5kbyBTZWd1cm8gTW92aWRvIGEgSlNPTjEOMAwGA1UECxMF
UENTTUoxHzAdBgNVBAMUFnNlcnZpZG9yX2ludGVybWVkaWFyaW8wgZ8wDQYJKoZI
hvcNAQEBBQADgY0AMIGJAoGBALKqMrrZ+mhjneLi3kAHFkBt3UIBNyL1gZp7OXSR
jb0UdI8xrdTKP88S+P5Ne4AsrvF1ekUyIuRH7VCFng7/06jMXgE/DaXutT2+VuBc
HNubBi12gllSTBsQo8l2DzgvLwxuruIuvXY8GPj2+bPYXU7wufEx4M1Vbpx1jNVs
ry79AgMBAAEwDQYJKoZIhvcNAQEFBQADgYEAnvPRM4fewEXwkqnaBDNLYpC0BZeu
CIvIQaDCq6/cSM1ZDCScTilNETPYUSCpvJ9EDURz+Ql+H7kBUD8AccVnE1GuNc81
RS+orxPrf44AFTNRIxwtyVlVphIuFMABDODUhapHoWz03H/MBNUd5gVdDMjtfYJ9
B4b5aRSht/hue90=
-----END CERTIFICATE-----
